; Function Attrs: nounwind uwtable
define internal i32 @cvSpilsPrecSetupBSWrapper(double noundef %0, ptr noundef %1, ptr noundef %2, i32 noundef %3, ptr noundef %4, double noundef %5, ptr noundef %6, ptr noundef %7, ptr noundef %8, ptr noundef %9) #0 {
  %11 = getelementptr inbounds nuw i8, ptr %6, i64 2192
  %12 = load ptr, ptr %11, align 8, !tbaa !52
  %13 = getelementptr inbounds nuw i8, ptr %12, i64 48
  %14 = load ptr, ptr %13, align 8, !tbaa !68
  %15 = getelementptr inbounds nuw i8, ptr %14, i64 72
  %16 = load ptr, ptr %15, align 8, !tbaa !64
  %17 = getelementptr inbounds nuw i8, ptr %12, i64 164
  %18 = load i32, ptr %17, align 4, !tbaa !74
  %.not = icmp eq i32 %18, 0
  %19 = getelementptr inbounds nuw i8, ptr %12, i64 144
  %20 = load ptr, ptr %19, align 8, !tbaa !69
  %21 = getelementptr inbounds nuw i8, ptr %12, i64 480
  %22 = load ptr, ptr %21, align 8, !tbaa !70
  br i1 %.not, label %26, label %23

23:                                               ; preds = %10
  %24 = getelementptr inbounds nuw i8, ptr %12, i64 488
  %25 = load ptr, ptr %24, align 8, !tbaa !75
  br label %26

26:                                               ; preds = %10, %23
  %.sink = phi ptr [ %25, %23 ], [ null, %10 ]
  %27 = tail call i32 %20(ptr noundef nonnull %6, double noundef %0, ptr noundef %22, ptr noundef %.sink) #5
  %.not31 = icmp eq i32 %27, 0
  br i1 %.not31, label %29, label %28

28:                                               ; preds = %26
  tail call void (ptr, i32, ptr, ptr, ptr, ...) @cvProcessError(ptr noundef nonnull %6, i32 noundef -1, ptr noundef nonnull @.str, ptr noundef nonnull @.str.43, ptr noundef nonnull @.str.42) #5
  br label %39

29:                                               ; preds = %26
  %30 = getelementptr inbounds nuw i8, ptr %16, i64 24
  %31 = load ptr, ptr %30, align 8, !tbaa !72
  %32 = getelementptr inbounds nuw i8, ptr %12, i64 480
  %33 = load ptr, ptr %32, align 8, !tbaa !70
  %34 = getelementptr inbounds nuw i8, ptr %12, i64 488
  %35 = load ptr, ptr %34, align 8, !tbaa !75
  %36 = getelementptr inbounds nuw i8, ptr %14, i64 64
  %37 = load ptr, ptr %36, align 8, !tbaa !71
  %38 = tail call i32 %31(double noundef %0, ptr noundef %33, ptr noundef %35, ptr noundef %1, ptr noundef %2, i32 noundef %3, ptr noundef %4, double noundef %5, ptr noundef %37, ptr noundef %7, ptr noundef %8, ptr noundef %9) #5
  br label %39

39:                                               ; preds = %29, %28
  %.030 = phi i32 [ -1, %28 ], [ %38, %29 ]
  ret i32 %.030
}